target datalayout = "e-m:e-p270:32:32-p271:32:32-p272:64:64-i64:64-i128:128-f80:128-n8:16:32:64-S128"
target triple = "x86_64-unknown-linux-gnu"

%"class.dd::bdd_manager" = type { i32, %class.svector, %class.ptr_hashtable, %class.hashtable, %class.svector.2, %class.svector.2, ptr, %class.svector.2, %class.svector.2, %class.svector.2, %class.svector.2, %class.small_object_allocator, %class.svector.2, i32, %class.svector.4, %class.svector.2, i8, i8, i32, %class.svector.2, %class.svector.2, %class.svector.2, %class.vector.6, %class.svector.2, i32, i32 }
%class.svector = type { %class.vector }
%class.vector = type { ptr }
%class.ptr_hashtable = type { %class.core_hashtable.base, [4 x i8] }
%class.core_hashtable.base = type <{ ptr, i32, i32, i32 }>
%class.hashtable = type { %class.core_hashtable.base.1, [4 x i8] }
%class.core_hashtable.base.1 = type <{ ptr, i32, i32, i32 }>
%class.small_object_allocator = type { [32 x ptr], [32 x ptr], i64 }
%class.svector.4 = type { %class.vector.5 }
%class.vector.5 = type { ptr }
%class.vector.6 = type { ptr }
%class.svector.2 = type { %class.vector.3 }
%class.vector.3 = type { ptr }
%"class.dd::bdd" = type { i32, ptr }

; Function Attrs: mustprogress uwtable
define hidden void @_ZN2dd11bdd_manager15try_cnf_reorderERKNS_3bddE(ptr noundef nonnull align 8 dereferenceable(728) %this, ptr noundef nonnull align 8 dereferenceable(16) %b) #4 align 2 {
entry:
  %this.addr = alloca ptr, align 8
  %b.addr = alloca ptr, align 8
  store ptr %this, ptr %this.addr, align 8
  store ptr %b, ptr %b.addr, align 8
  %this1 = load ptr, ptr %this.addr, align 8
  %0 = load ptr, ptr %b.addr, align 8
  %root = getelementptr inbounds %"class.dd::bdd", ptr %0, i32 0, i32 0
  %1 = load i32, ptr %root, align 8
  %m_cost_bdd = getelementptr inbounds %"class.dd::bdd_manager", ptr %this1, i32 0, i32 25
  store i32 %1, ptr %m_cost_bdd, align 4
  %m_cost_metric = getelementptr inbounds %"class.dd::bdd_manager", ptr %this1, i32 0, i32 24
  store i32 0, ptr %m_cost_metric, align 8
  call void @_ZN2dd11bdd_manager11try_reorderEv(ptr noundef nonnull align 8 dereferenceable(728) %this1)
  %m_cost_metric2 = getelementptr inbounds %"class.dd::bdd_manager", ptr %this1, i32 0, i32 24
  store i32 2, ptr %m_cost_metric2, align 8
  %m_cost_bdd3 = getelementptr inbounds %"class.dd::bdd_manager", ptr %this1, i32 0, i32 25
  store i32 0, ptr %m_cost_bdd3, align 4
  ret void
}