; Function Attrs: mustprogress uwtable
define hidden void @_ZN2dd11bdd_manager15try_cnf_reorderERKNS_3bddE(ptr noundef nonnull align 8 dereferenceable(728) %this, ptr nocapture noundef nonnull readonly align 8 dereferenceable(16) %b) local_unnamed_addr #3 align 2 {
entry:
  %0 = load i32, ptr %b, align 8
  %m_cost_bdd = getelementptr inbounds i8, ptr %this, i64 724
  store i32 %0, ptr %m_cost_bdd, align 4
  %m_cost_metric = getelementptr inbounds i8, ptr %this, i64 720
  store i32 0, ptr %m_cost_metric, align 8
  tail call void @_ZN2dd11bdd_manager11try_reorderEv(ptr noundef nonnull align 8 dereferenceable(728) %this)
  store i32 2, ptr %m_cost_metric, align 8
  store i32 0, ptr %m_cost_bdd, align 4
  ret void
}